target datalayout = "e-m:e-p270:32:32-p271:32:32-p272:64:64-i64:64-i128:128-f80:128-n8:16:32:64-S128"
target triple = "x86_64-pc-linux-gnu"

%"class.llvm::NoopStatistic" = type { i8 }
%"class.llvm::SUnit" = type <{ %union.anon, ptr, ptr, ptr, ptr, %"class.llvm::SmallVector", %"class.llvm::SmallVector", i32, i32, i32, i32, i32, i32, i32, i32, i32, i32, i32, i32, i16, i16, i16, i8, i8 }>
%union.anon = type { ptr }
%"class.llvm::SmallVector" = type { %"class.llvm::SmallVectorImpl", %"struct.llvm::SmallVectorStorage" }
%"class.llvm::SmallVectorImpl" = type { %"class.llvm::SmallVectorTemplateBase" }
%"class.llvm::SmallVectorTemplateBase" = type { %"class.llvm::SmallVectorTemplateCommon" }
%"class.llvm::SmallVectorTemplateCommon" = type { %"class.llvm::SmallVectorBase" }
%"class.llvm::SmallVectorBase" = type { ptr, i32, i32 }
%"struct.llvm::SmallVectorStorage" = type { [64 x i8] }
%"class.llvm::ScheduleDAGTopologicalSort" = type { ptr, ptr, i8, %"class.llvm::SmallVector.159", %"class.std::vector.164", %"class.std::vector.164", %"class.llvm::BitVector" }
%"class.llvm::SmallVector.159" = type { %"class.llvm::SmallVectorImpl.160", %"struct.llvm::SmallVectorStorage.163" }
%"class.llvm::SmallVectorImpl.160" = type { %"class.llvm::SmallVectorTemplateBase.161" }
%"class.llvm::SmallVectorTemplateBase.161" = type { %"class.llvm::SmallVectorTemplateCommon.162" }
%"class.llvm::SmallVectorTemplateCommon.162" = type { %"class.llvm::SmallVectorBase" }
%"struct.llvm::SmallVectorStorage.163" = type { [256 x i8] }
%"class.std::vector.164" = type { %"struct.std::_Vector_base.165" }
%"struct.std::_Vector_base.165" = type { %"struct.std::_Vector_base<int, std::allocator<int>>::_Vector_impl" }
%"struct.std::_Vector_base<int, std::allocator<int>>::_Vector_impl" = type { %"struct.std::_Vector_base<int, std::allocator<int>>::_Vector_impl_data" }
%"struct.std::_Vector_base<int, std::allocator<int>>::_Vector_impl_data" = type { ptr, ptr, ptr }
%"class.llvm::BitVector" = type <{ %"class.llvm::SmallVector.123", i32, [4 x i8] }>
%"class.llvm::SmallVector.123" = type { %"class.llvm::SmallVectorImpl.124", %"struct.llvm::SmallVectorStorage.127" }
%"class.llvm::SmallVectorImpl.124" = type { %"class.llvm::SmallVectorTemplateBase.125" }
%"class.llvm::SmallVectorTemplateBase.125" = type { %"class.llvm::SmallVectorTemplateCommon.126" }
%"class.llvm::SmallVectorTemplateCommon.126" = type { %"class.llvm::SmallVectorBase" }
%"struct.llvm::SmallVectorStorage.127" = type { [48 x i8] }
%"struct.std::pair.174" = type { ptr, ptr }

@_ZL16NumNewPredsAdded = internal global %"class.llvm::NoopStatistic" zeroinitializer, align 1

; Function Attrs: mustprogress nounwind uwtable
define linkonce_odr void @_ZSt9__fill_a1IPmmEN9__gnu_cxx11__enable_ifIXsr11__is_scalarIT0_EE7__valueEvE6__typeET_S6_RKS3_(ptr noundef %0, ptr noundef %1, ptr noundef nonnull align 8 dereferenceable(8) %2) #1 comdat {
  %4 = alloca ptr, align 8
  %5 = alloca ptr, align 8
  %6 = alloca ptr, align 8
  %7 = alloca i64, align 8
  store ptr %0, ptr %4, align 8
  store ptr %1, ptr %5, align 8
  store ptr %2, ptr %6, align 8
  %8 = load ptr, ptr %6, align 8
  %9 = load i64, ptr %8, align 8
  store i64 %9, ptr %7, align 8
  br label %10

10:                                               ; preds = %17, %3
  %11 = load ptr, ptr %4, align 8
  %12 = load ptr, ptr %5, align 8
  %13 = icmp ne ptr %11, %12
  br i1 %13, label %14, label %20

14:                                               ; preds = %10
  %15 = load i64, ptr %7, align 8
  %16 = load ptr, ptr %4, align 8
  store i64 %15, ptr %16, align 8
  br label %17

17:                                               ; preds = %14
  %18 = load ptr, ptr %4, align 8
  %19 = getelementptr inbounds i64, ptr %18, i32 1
  store ptr %19, ptr %4, align 8
  br label %10, !llvm.loop !17

20:                                               ; preds = %10
  ret void
}

; Function Attrs: mustprogress nounwind uwtable
define linkonce_odr void @_ZSt8__fill_aIPmmEvT_S1_RKT0_(ptr noundef %0, ptr noundef %1, ptr noundef nonnull align 8 dereferenceable(8) %2) #1 comdat {
  %4 = alloca ptr, align 8
  %5 = alloca ptr, align 8
  %6 = alloca ptr, align 8
  store ptr %0, ptr %4, align 8
  store ptr %1, ptr %5, align 8
  store ptr %2, ptr %6, align 8
  %7 = load ptr, ptr %4, align 8
  %8 = load ptr, ptr %5, align 8
  %9 = load ptr, ptr %6, align 8
  call void @_ZSt9__fill_a1IPmmEN9__gnu_cxx11__enable_ifIXsr11__is_scalarIT0_EE7__valueEvE6__typeET_S6_RKS3_(ptr noundef %7, ptr noundef %8, ptr noundef nonnull align 8 dereferenceable(8) %9)
  ret void
}

; Function Attrs: mustprogress nounwind uwtable
define linkonce_odr void @_ZSt4fillIPmmEvT_S1_RKT0_(ptr noundef %0, ptr noundef %1, ptr noundef nonnull align 8 dereferenceable(8) %2) #1 comdat {
  %4 = alloca ptr, align 8
  %5 = alloca ptr, align 8
  %6 = alloca ptr, align 8
  store ptr %0, ptr %4, align 8
  store ptr %1, ptr %5, align 8
  store ptr %2, ptr %6, align 8
  %7 = load ptr, ptr %4, align 8
  %8 = load ptr, ptr %5, align 8
  %9 = load ptr, ptr %6, align 8
  call void @_ZSt8__fill_aIPmmEvT_S1_RKT0_(ptr noundef %7, ptr noundef %8, ptr noundef nonnull align 8 dereferenceable(8) %9)
  ret void
}

; Function Attrs: mustprogress nounwind uwtable
define linkonce_odr hidden noundef ptr @_ZN4llvm25SmallVectorTemplateCommonImvE3endEv(ptr noundef nonnull align 8 dereferenceable(16) %0) #1 comdat align 2 {
  %2 = alloca ptr, align 8
  store ptr %0, ptr %2, align 8
  %3 = load ptr, ptr %2, align 8
  %4 = call noundef ptr @_ZN4llvm25SmallVectorTemplateCommonImvE5beginEv(ptr noundef nonnull align 8 dereferenceable(16) %3)
  %5 = call noundef i64 @_ZNK4llvm15SmallVectorBaseIjE4sizeEv(ptr noundef nonnull align 8 dereferenceable(16) %3)
  %6 = getelementptr inbounds i64, ptr %4, i64 %5
  ret ptr %6
}

; Function Attrs: mustprogress nounwind uwtable
define linkonce_odr hidden noundef ptr @_ZN4llvm25SmallVectorTemplateCommonImvE5beginEv(ptr noundef nonnull align 8 dereferenceable(16) %0) #1 comdat align 2 {
  %2 = alloca ptr, align 8
  store ptr %0, ptr %2, align 8
  %3 = load ptr, ptr %2, align 8
  %4 = getelementptr inbounds nuw %"class.llvm::SmallVectorBase", ptr %3, i32 0, i32 0
  %5 = load ptr, ptr %4, align 8
  ret ptr %5
}

; Function Attrs: mustprogress nounwind uwtable
define linkonce_odr hidden void @_ZN4llvm9BitVector10init_wordsEb(ptr noundef nonnull align 8 dereferenceable(68) %0, i1 noundef zeroext %1) #1 comdat align 2 {
  %3 = alloca ptr, align 8
  %4 = alloca i8, align 1
  %5 = alloca i64, align 8
  store ptr %0, ptr %3, align 8
  %6 = zext i1 %1 to i8
  store i8 %6, ptr %4, align 1
  %7 = load ptr, ptr %3, align 8
  %8 = getelementptr inbounds nuw %"class.llvm::BitVector", ptr %7, i32 0, i32 0
  %9 = call noundef ptr @_ZN4llvm25SmallVectorTemplateCommonImvE5beginEv(ptr noundef nonnull align 8 dereferenceable(16) %8)
  %10 = getelementptr inbounds nuw %"class.llvm::BitVector", ptr %7, i32 0, i32 0
  %11 = call noundef ptr @_ZN4llvm25SmallVectorTemplateCommonImvE3endEv(ptr noundef nonnull align 8 dereferenceable(16) %10)
  %12 = load i8, ptr %4, align 1
  %13 = trunc i8 %12 to i1
  %14 = zext i1 %13 to i64
  %15 = sub i64 0, %14
  store i64 %15, ptr %5, align 8
  call void @_ZSt4fillIPmmEvT_S1_RKT0_(ptr noundef %9, ptr noundef %11, ptr noundef nonnull align 8 dereferenceable(8) %5)
  ret void
}

; Function Attrs: mustprogress nounwind uwtable
define linkonce_odr hidden void @_ZN4llvm23SmallVectorTemplateBaseISt4pairIPNS_5SUnitES3_ELb1EE13destroy_rangeEPS4_S6_(ptr noundef %0, ptr noundef %1) #1 comdat align 2 {
  %3 = alloca ptr, align 8
  %4 = alloca ptr, align 8
  store ptr %0, ptr %3, align 8
  store ptr %1, ptr %4, align 8
  ret void
}

; Function Attrs: mustprogress nounwind uwtable
define linkonce_odr hidden noundef i64 @_ZN4llvm13NoopStatisticppEi(ptr noundef nonnull align 1 dereferenceable(1) %0, i32 noundef %1) #1 comdat align 2 {
  %3 = alloca ptr, align 8
  %4 = alloca i32, align 4
  store ptr %0, ptr %3, align 8
  store i32 %1, ptr %4, align 4
  ret i64 0
}

; Function Attrs: mustprogress nounwind uwtable
define linkonce_odr hidden noundef nonnull align 8 dereferenceable(68) ptr @_ZN4llvm9BitVector5resetEv(ptr noundef nonnull align 8 dereferenceable(68) %0) #1 comdat align 2 {
  %2 = alloca ptr, align 8
  store ptr %0, ptr %2, align 8
  %3 = load ptr, ptr %2, align 8
  call void @_ZN4llvm9BitVector10init_wordsEb(ptr noundef nonnull align 8 dereferenceable(68) %3, i1 noundef zeroext false)
  ret ptr %3
}

; Function Attrs: mustprogress nounwind uwtable
define linkonce_odr hidden noundef nonnull align 4 dereferenceable(4) ptr @_ZNSt6vectorIiSaIiEEixEm(ptr noundef nonnull align 8 dereferenceable(24) %0, i64 noundef %1) #1 comdat align 2 {
  %3 = alloca ptr, align 8
  %4 = alloca i64, align 8
  store ptr %0, ptr %3, align 8
  store i64 %1, ptr %4, align 8
  %5 = load ptr, ptr %3, align 8
  %6 = getelementptr inbounds nuw %"struct.std::_Vector_base.165", ptr %5, i32 0, i32 0
  %7 = getelementptr inbounds nuw %"struct.std::_Vector_base<int, std::allocator<int>>::_Vector_impl_data", ptr %6, i32 0, i32 0
  %8 = load ptr, ptr %7, align 8
  %9 = load i64, ptr %4, align 8
  %10 = getelementptr inbounds i32, ptr %8, i64 %9
  ret ptr %10
}

; Function Attrs: mustprogress nounwind uwtable
define linkonce_odr hidden void @_ZN4llvm15SmallVectorImplISt4pairIPNS_5SUnitES3_EE5clearEv(ptr noundef nonnull align 8 dereferenceable(16) %0) #1 comdat align 2 {
  %2 = alloca ptr, align 8
  store ptr %0, ptr %2, align 8
  %3 = load ptr, ptr %2, align 8
  %4 = call noundef ptr @_ZN4llvm25SmallVectorTemplateCommonISt4pairIPNS_5SUnitES3_EvE5beginEv(ptr noundef nonnull align 8 dereferenceable(16) %3)
  %5 = call noundef ptr @_ZN4llvm25SmallVectorTemplateCommonISt4pairIPNS_5SUnitES3_EvE3endEv(ptr noundef nonnull align 8 dereferenceable(16) %3)
  call void @_ZN4llvm23SmallVectorTemplateBaseISt4pairIPNS_5SUnitES3_ELb1EE13destroy_rangeEPS4_S6_(ptr noundef %4, ptr noundef %5)
  %6 = getelementptr inbounds nuw %"class.llvm::SmallVectorBase", ptr %3, i32 0, i32 1
  store i32 0, ptr %6, align 8
  ret void
}

; Function Attrs: mustprogress nounwind uwtable
define dso_local void @_ZN4llvm26ScheduleDAGTopologicalSort7AddPredEPNS_5SUnitES2_(ptr noundef nonnull align 8 dereferenceable(416) %0, ptr noundef %1, ptr noundef %2) #1 align 2 {
  %4 = alloca ptr, align 8
  %5 = alloca ptr, align 8
  %6 = alloca ptr, align 8
  %7 = alloca i32, align 4
  %8 = alloca i32, align 4
  %9 = alloca i8, align 1
  store ptr %0, ptr %4, align 8
  store ptr %1, ptr %5, align 8
  store ptr %2, ptr %6, align 8
  %10 = load ptr, ptr %4, align 8
  %11 = getelementptr inbounds nuw %"class.llvm::ScheduleDAGTopologicalSort", ptr %10, i32 0, i32 5
  %12 = load ptr, ptr %5, align 8
  %13 = getelementptr inbounds nuw %"class.llvm::SUnit", ptr %12, i32 0, i32 7
  %14 = load i32, ptr %13, align 8
  %15 = zext i32 %14 to i64
  %16 = call noundef nonnull align 4 dereferenceable(4) ptr @_ZNSt6vectorIiSaIiEEixEm(ptr noundef nonnull align 8 dereferenceable(24) %11, i64 noundef %15) #10
  %17 = load i32, ptr %16, align 4
  store i32 %17, ptr %8, align 4
  %18 = getelementptr inbounds nuw %"class.llvm::ScheduleDAGTopologicalSort", ptr %10, i32 0, i32 5
  %19 = load ptr, ptr %6, align 8
  %20 = getelementptr inbounds nuw %"class.llvm::SUnit", ptr %19, i32 0, i32 7
  %21 = load i32, ptr %20, align 8
  %22 = zext i32 %21 to i64
  %23 = call noundef nonnull align 4 dereferenceable(4) ptr @_ZNSt6vectorIiSaIiEEixEm(ptr noundef nonnull align 8 dereferenceable(24) %18, i64 noundef %22) #10
  %24 = load i32, ptr %23, align 4
  store i32 %24, ptr %7, align 4
  store i8 0, ptr %9, align 1
  %25 = load i32, ptr %8, align 4
  %26 = load i32, ptr %7, align 4
  %27 = icmp slt i32 %25, %26
  br i1 %27, label %28, label %36

28:                                               ; preds = %3
  %29 = getelementptr inbounds nuw %"class.llvm::ScheduleDAGTopologicalSort", ptr %10, i32 0, i32 6
  %30 = call noundef nonnull align 8 dereferenceable(68) ptr @_ZN4llvm9BitVector5resetEv(ptr noundef nonnull align 8 dereferenceable(68) %29)
  %31 = load ptr, ptr %5, align 8
  %32 = load i32, ptr %7, align 4
  call void @_ZN4llvm26ScheduleDAGTopologicalSort3DFSEPKNS_5SUnitEiRb(ptr noundef nonnull align 8 dereferenceable(416) %10, ptr noundef %31, i32 noundef %32, ptr noundef nonnull align 1 dereferenceable(1) %9)
  %33 = getelementptr inbounds nuw %"class.llvm::ScheduleDAGTopologicalSort", ptr %10, i32 0, i32 6
  %34 = load i32, ptr %8, align 4
  %35 = load i32, ptr %7, align 4
  call void @_ZN4llvm26ScheduleDAGTopologicalSort5ShiftERNS_9BitVectorEii(ptr noundef nonnull align 8 dereferenceable(416) %10, ptr noundef nonnull align 8 dereferenceable(68) %33, i32 noundef %34, i32 noundef %35)
  br label %36

36:                                               ; preds = %28, %3
  %37 = call noundef i64 @_ZN4llvm13NoopStatisticppEi(ptr noundef nonnull align 1 dereferenceable(1) @_ZL16NumNewPredsAdded, i32 noundef 0)
  ret void
}

; Function Attrs: mustprogress nounwind uwtable
define linkonce_odr hidden noundef ptr @_ZN4llvm25SmallVectorTemplateCommonISt4pairIPNS_5SUnitES3_EvE3endEv(ptr noundef nonnull align 8 dereferenceable(16) %0) #1 comdat align 2 {
  %2 = alloca ptr, align 8
  store ptr %0, ptr %2, align 8
  %3 = load ptr, ptr %2, align 8
  %4 = call noundef ptr @_ZN4llvm25SmallVectorTemplateCommonISt4pairIPNS_5SUnitES3_EvE5beginEv(ptr noundef nonnull align 8 dereferenceable(16) %3)
  %5 = call noundef i64 @_ZNK4llvm15SmallVectorBaseIjE4sizeEv(ptr noundef nonnull align 8 dereferenceable(16) %3)
  %6 = getelementptr inbounds %"struct.std::pair.174", ptr %4, i64 %5
  ret ptr %6
}

; Function Attrs: mustprogress nounwind uwtable
define linkonce_odr hidden noundef ptr @_ZN4llvm25SmallVectorTemplateCommonISt4pairIPNS_5SUnitES3_EvE5beginEv(ptr noundef nonnull align 8 dereferenceable(16) %0) #1 comdat align 2 {
  %2 = alloca ptr, align 8
  store ptr %0, ptr %2, align 8
  %3 = load ptr, ptr %2, align 8
  %4 = getelementptr inbounds nuw %"class.llvm::SmallVectorBase", ptr %3, i32 0, i32 0
  %5 = load ptr, ptr %4, align 8
  ret ptr %5
}

; Function Attrs: mustprogress nounwind uwtable
define dso_local void @_ZN4llvm26ScheduleDAGTopologicalSort8FixOrderEv(ptr noundef nonnull align 8 dereferenceable(416) %0) #1 align 2 {
  %2 = alloca ptr, align 8
  %3 = alloca ptr, align 8
  %4 = alloca ptr, align 8
  %5 = alloca ptr, align 8
  %6 = alloca ptr, align 8
  store ptr %0, ptr %2, align 8
  %7 = load ptr, ptr %2, align 8
  %8 = getelementptr inbounds nuw %"class.llvm::ScheduleDAGTopologicalSort", ptr %7, i32 0, i32 2
  %9 = load i8, ptr %8, align 8
  %10 = trunc i8 %9 to i1
  br i1 %10, label %11, label %12

11:                                               ; preds = %1
  call void @_ZN4llvm26ScheduleDAGTopologicalSort25InitDAGTopologicalSortingEv(ptr noundef nonnull align 8 dereferenceable(416) %7)
  br label %35

12:                                               ; preds = %1
  %13 = getelementptr inbounds nuw %"class.llvm::ScheduleDAGTopologicalSort", ptr %7, i32 0, i32 3
  store ptr %13, ptr %3, align 8
  %14 = load ptr, ptr %3, align 8
  %15 = call noundef ptr @_ZN4llvm25SmallVectorTemplateCommonISt4pairIPNS_5SUnitES3_EvE5beginEv(ptr noundef nonnull align 8 dereferenceable(16) %14)
  store ptr %15, ptr %4, align 8
  %16 = load ptr, ptr %3, align 8
  %17 = call noundef ptr @_ZN4llvm25SmallVectorTemplateCommonISt4pairIPNS_5SUnitES3_EvE3endEv(ptr noundef nonnull align 8 dereferenceable(16) %16)
  store ptr %17, ptr %5, align 8
  br label %18

18:                                               ; preds = %30, %12
  %19 = load ptr, ptr %4, align 8
  %20 = load ptr, ptr %5, align 8
  %21 = icmp ne ptr %19, %20
  br i1 %21, label %22, label %33

22:                                               ; preds = %18
  %23 = load ptr, ptr %4, align 8
  store ptr %23, ptr %6, align 8
  %24 = load ptr, ptr %6, align 8
  %25 = getelementptr inbounds nuw %"struct.std::pair.174", ptr %24, i32 0, i32 0
  %26 = load ptr, ptr %25, align 8
  %27 = load ptr, ptr %6, align 8
  %28 = getelementptr inbounds nuw %"struct.std::pair.174", ptr %27, i32 0, i32 1
  %29 = load ptr, ptr %28, align 8
  call void @_ZN4llvm26ScheduleDAGTopologicalSort7AddPredEPNS_5SUnitES2_(ptr noundef nonnull align 8 dereferenceable(416) %7, ptr noundef %26, ptr noundef %29)
  br label %30

30:                                               ; preds = %22
  %31 = load ptr, ptr %4, align 8
  %32 = getelementptr inbounds %"struct.std::pair.174", ptr %31, i32 1
  store ptr %32, ptr %4, align 8
  br label %18

33:                                               ; preds = %18
  %34 = getelementptr inbounds nuw %"class.llvm::ScheduleDAGTopologicalSort", ptr %7, i32 0, i32 3
  call void @_ZN4llvm15SmallVectorImplISt4pairIPNS_5SUnitES3_EE5clearEv(ptr noundef nonnull align 8 dereferenceable(16) %34)
  br label %35

35:                                               ; preds = %33, %11
  ret void
}