; Function Attrs: mustprogress nounwind uwtable
define dso_local void @_ZN4llvm26ScheduleDAGTopologicalSort8FixOrderEv(ptr noundef nonnull align 8 dereferenceable(416) %0) local_unnamed_addr #1 align 2 {
  %2 = alloca i8, align 1
  %3 = getelementptr inbounds nuw i8, ptr %0, i64 16
  %4 = load i8, ptr %3, align 8
  %5 = trunc i8 %4 to i1
  br i1 %5, label %6, label %7

6:                                                ; preds = %1
  tail call void @_ZN4llvm26ScheduleDAGTopologicalSort25InitDAGTopologicalSortingEv(ptr noundef nonnull align 8 dereferenceable(416) %0)
  br label %37

7:                                                ; preds = %1
  %8 = getelementptr inbounds nuw i8, ptr %0, i64 24
  %9 = load ptr, ptr %8, align 8
  %10 = tail call noundef i64 @_ZNK4llvm15SmallVectorBaseIjE4sizeEv(ptr noundef nonnull align 8 dereferenceable(16) %8) #16
  %11 = getelementptr inbounds %"struct.std::pair.174", ptr %9, i64 %10
  %.not9 = icmp eq i64 %10, 0
  br i1 %.not9, label %._crit_edge, label %.lr.ph

.lr.ph:                                           ; preds = %7
  %12 = getelementptr inbounds nuw i8, ptr %0, i64 320
  %13 = getelementptr inbounds nuw i8, ptr %0, i64 344
  br label %14

14:                                               ; preds = %.lr.ph, %_ZN4llvm26ScheduleDAGTopologicalSort7AddPredEPNS_5SUnitES2_.exit
  %.010 = phi ptr [ %9, %.lr.ph ], [ %34, %_ZN4llvm26ScheduleDAGTopologicalSort7AddPredEPNS_5SUnitES2_.exit ]
  %15 = load ptr, ptr %.010, align 8
  %16 = getelementptr inbounds nuw i8, ptr %.010, i64 8
  %17 = load ptr, ptr %16, align 8
  call void @llvm.lifetime.start.p0(i64 1, ptr nonnull %2)
  %18 = getelementptr inbounds nuw i8, ptr %15, i64 200
  %19 = load i32, ptr %18, align 8
  %20 = zext i32 %19 to i64
  %21 = load ptr, ptr %12, align 8
  %22 = getelementptr inbounds i32, ptr %21, i64 %20
  %23 = load i32, ptr %22, align 4
  %24 = getelementptr inbounds nuw i8, ptr %17, i64 200
  %25 = load i32, ptr %24, align 8
  %26 = zext i32 %25 to i64
  %27 = getelementptr inbounds i32, ptr %21, i64 %26
  %28 = load i32, ptr %27, align 4
  %29 = icmp slt i32 %23, %28
  br i1 %29, label %30, label %_ZN4llvm26ScheduleDAGTopologicalSort7AddPredEPNS_5SUnitES2_.exit

30:                                               ; preds = %14
  %31 = load ptr, ptr %13, align 8
  %32 = tail call noundef i64 @_ZNK4llvm15SmallVectorBaseIjE4sizeEv(ptr noundef nonnull align 8 dereferenceable(16) %13) #16
  %.not5.i.i.i.i.i.i = icmp eq i64 %32, 0
  br i1 %.not5.i.i.i.i.i.i, label %_ZN4llvm9BitVector5resetEv.exit.i, label %.lr.ph.i.i.i.i.preheader.i.i

.lr.ph.i.i.i.i.preheader.i.i:                     ; preds = %30
  %33 = shl i64 %32, 3
  tail call void @llvm.memset.p0.i64(ptr align 8 %31, i8 0, i64 %33, i1 false)
  br label %_ZN4llvm9BitVector5resetEv.exit.i

_ZN4llvm9BitVector5resetEv.exit.i:                ; preds = %.lr.ph.i.i.i.i.preheader.i.i, %30
  call void @_ZN4llvm26ScheduleDAGTopologicalSort3DFSEPKNS_5SUnitEiRb(ptr noundef nonnull align 8 dereferenceable(416) %0, ptr noundef nonnull %15, i32 noundef %28, ptr noundef nonnull align 1 dereferenceable(1) %2)
  tail call void @_ZN4llvm26ScheduleDAGTopologicalSort5ShiftERNS_9BitVectorEii(ptr noundef nonnull align 8 dereferenceable(416) %0, ptr noundef nonnull align 8 dereferenceable(68) %13, i32 noundef %23, i32 noundef %28)
  br label %_ZN4llvm26ScheduleDAGTopologicalSort7AddPredEPNS_5SUnitES2_.exit

_ZN4llvm26ScheduleDAGTopologicalSort7AddPredEPNS_5SUnitES2_.exit: ; preds = %14, %_ZN4llvm9BitVector5resetEv.exit.i
  call void @llvm.lifetime.end.p0(i64 1, ptr nonnull %2)
  %34 = getelementptr inbounds i8, ptr %.010, i64 16
  %.not = icmp eq ptr %34, %11
  br i1 %.not, label %._crit_edge, label %14

._crit_edge:                                      ; preds = %_ZN4llvm26ScheduleDAGTopologicalSort7AddPredEPNS_5SUnitES2_.exit, %7
  %35 = tail call noundef i64 @_ZNK4llvm15SmallVectorBaseIjE4sizeEv(ptr noundef nonnull align 8 dereferenceable(16) %8) #16
  %36 = getelementptr inbounds i8, ptr %0, i64 32
  store i32 0, ptr %36, align 8
  br label %37

37:                                               ; preds = %._crit_edge, %6
  ret void
}